target datalayout = "e-m:e-p270:32:32-p271:32:32-p272:64:64-i64:64-i128:128-f80:128-n8:16:32:64-S128"
target triple = "x86_64-pc-linux-gnu"

%struct.priority_factors_t = type { i32, double, double, double, double, double, double, i32, ptr, i32, ptr, ptr }

; Function Attrs: nounwind uwtable
define dso_local void @slurm_destroy_priority_factors(ptr noundef %0) #0 {
  %2 = alloca ptr, align 8
  %3 = alloca ptr, align 8
  %4 = alloca i32, align 4
  %5 = alloca i32, align 4
  store ptr %0, ptr %2, align 8
  call void @llvm.lifetime.start.p0(i64 8, ptr %3) #11
  %6 = load ptr, ptr %2, align 8
  store ptr %6, ptr %3, align 8
  %7 = load ptr, ptr %3, align 8
  %8 = icmp ne ptr %7, null
  br i1 %8, label %10, label %9

9:                                                ; preds = %1
  store i32 1, ptr %4, align 4
  br label %46

10:                                               ; preds = %1
  %11 = load ptr, ptr %3, align 8
  %12 = getelementptr inbounds nuw %struct.priority_factors_t, ptr %11, i32 0, i32 8
  call void @slurm_xfree(ptr noundef %12)
  %13 = load ptr, ptr %3, align 8
  %14 = getelementptr inbounds nuw %struct.priority_factors_t, ptr %13, i32 0, i32 9
  %15 = load i32, ptr %14, align 8
  %16 = icmp ne i32 %15, 0
  br i1 %16, label %17, label %41

17:                                               ; preds = %10
  %18 = load ptr, ptr %3, align 8
  %19 = getelementptr inbounds nuw %struct.priority_factors_t, ptr %18, i32 0, i32 10
  %20 = load ptr, ptr %19, align 8
  %21 = icmp ne ptr %20, null
  br i1 %21, label %22, label %41

22:                                               ; preds = %17
  call void @llvm.lifetime.start.p0(i64 4, ptr %5) #11
  store i32 0, ptr %5, align 4
  br label %23

23:                                               ; preds = %37, %22
  %24 = load i32, ptr %5, align 4
  %25 = load ptr, ptr %3, align 8
  %26 = getelementptr inbounds nuw %struct.priority_factors_t, ptr %25, i32 0, i32 9
  %27 = load i32, ptr %26, align 8
  %28 = icmp ult i32 %24, %27
  br i1 %28, label %30, label %29

29:                                               ; preds = %23
  store i32 2, ptr %4, align 4
  call void @llvm.lifetime.end.p0(i64 4, ptr %5) #11
  br label %40

30:                                               ; preds = %23
  %31 = load ptr, ptr %3, align 8
  %32 = getelementptr inbounds nuw %struct.priority_factors_t, ptr %31, i32 0, i32 10
  %33 = load ptr, ptr %32, align 8
  %34 = load i32, ptr %5, align 4
  %35 = sext i32 %34 to i64
  %36 = getelementptr inbounds ptr, ptr %33, i64 %35
  call void @slurm_xfree(ptr noundef %36)
  br label %37

37:                                               ; preds = %30
  %38 = load i32, ptr %5, align 4
  %39 = add nsw i32 %38, 1
  store i32 %39, ptr %5, align 4
  br label %23, !llvm.loop !65

40:                                               ; preds = %29
  br label %41

41:                                               ; preds = %40, %17, %10
  %42 = load ptr, ptr %3, align 8
  %43 = getelementptr inbounds nuw %struct.priority_factors_t, ptr %42, i32 0, i32 10
  call void @slurm_xfree(ptr noundef %43)
  %44 = load ptr, ptr %3, align 8
  %45 = getelementptr inbounds nuw %struct.priority_factors_t, ptr %44, i32 0, i32 11
  call void @slurm_xfree(ptr noundef %45)
  call void @slurm_xfree(ptr noundef %3)
  store i32 0, ptr %4, align 4
  br label %46

46:                                               ; preds = %41, %9
  call void @llvm.lifetime.end.p0(i64 8, ptr %3) #11
  %47 = load i32, ptr %4, align 4
  switch i32 %47, label %49 [
    i32 0, label %48
    i32 1, label %48
  ]

48:                                               ; preds = %46, %46
  ret void

49:                                               ; preds = %46
  unreachable
}